target datalayout = "e-m:e-p270:32:32-p271:32:32-p272:64:64-i64:64-i128:128-f80:128-n8:16:32:64-S128"
target triple = "x86_64-pc-linux-gnu"

%"struct.gmx::EnumerationArray" = type { [12 x ptr] }
%struct.t_psdata = type { ptr, %"class.std::vector", float, i32 }
%"class.std::vector" = type { %"struct.std::_Vector_base" }
%"struct.std::_Vector_base" = type { %"struct.std::_Vector_base<t_rgb, std::allocator<t_rgb>>::_Vector_impl" }
%"struct.std::_Vector_base<t_rgb, std::allocator<t_rgb>>::_Vector_impl" = type { %"struct.std::_Vector_base<t_rgb, std::allocator<t_rgb>>::_Vector_impl_data" }
%"struct.std::_Vector_base<t_rgb, std::allocator<t_rgb>>::_Vector_impl_data" = type { ptr, ptr, ptr }

@__const._Z17enumValueToString5Fonts.fontNames = private unnamed_addr constant %"struct.gmx::EnumerationArray" { [12 x ptr] [ptr @.str, ptr @.str.1, ptr @.str.2, ptr @.str.3, ptr @.str.4, ptr @.str.5, ptr @.str.6, ptr @.str.7, ptr @.str.8, ptr @.str.9, ptr @.str.10, ptr @.str.11] }, align 8
@stderr = external global ptr, align 8
@.str.45 = private unnamed_addr constant [28 x i8] c"Invalid Font: %d, using %s\0A\00", align 1
@.str.46 = private unnamed_addr constant [14 x i8] c"/%s findfont\0A\00", align 1
@.str.47 = private unnamed_addr constant [22 x i8] c"%g scalefont setfont\0A\00", align 1

; Function Attrs: mustprogress nounwind uwtable
define linkonce_odr noundef nonnull align 8 dereferenceable(8) ptr @_ZN3gmx16EnumerationArrayI5FontsPKcLS1_12EEixES1_(ptr noundef nonnull align 8 dereferenceable(96) %0, i32 noundef %1) #3 comdat align 2 {
  %3 = alloca ptr, align 8
  %4 = alloca i32, align 4
  store ptr %0, ptr %3, align 8, !tbaa !11
  store i32 %1, ptr %4, align 4, !tbaa !4
  %5 = load ptr, ptr %3, align 8
  %6 = getelementptr inbounds nuw %"struct.gmx::EnumerationArray", ptr %5, i32 0, i32 0
  %7 = load i32, ptr %4, align 4, !tbaa !4
  %8 = sext i32 %7 to i64
  %9 = getelementptr inbounds nuw [12 x ptr], ptr %6, i64 0, i64 %8
  ret ptr %9
}

; Function Attrs: mustprogress uwtable
define noundef ptr @_Z17enumValueToString5Fonts(i32 noundef %0) #0 {
  %2 = alloca i32, align 4
  %3 = alloca %"struct.gmx::EnumerationArray", align 8
  store i32 %0, ptr %2, align 4, !tbaa !4
  call void @llvm.lifetime.start.p0(i64 96, ptr %3) #14
  call void @llvm.memcpy.p0.p0.i64(ptr align 8 %3, ptr align 8 @__const._Z17enumValueToString5Fonts.fontNames, i64 96, i1 false)
  %4 = load i32, ptr %2, align 4, !tbaa !4
  %5 = call noundef nonnull align 8 dereferenceable(8) ptr @_ZN3gmx16EnumerationArrayI5FontsPKcLS1_12EEixES1_(ptr noundef nonnull align 8 dereferenceable(96) %3, i32 noundef %4)
  %6 = load ptr, ptr %5, align 8, !tbaa !8
  call void @llvm.lifetime.end.p0(i64 96, ptr %3) #14
  ret ptr %6
}

; Function Attrs: mustprogress uwtable
define void @_Z7ps_fontP8t_psdata5Fontsf(ptr noundef %0, i32 noundef %1, float noundef %2) #0 {
  %4 = alloca ptr, align 8
  %5 = alloca i32, align 4
  %6 = alloca float, align 4
  store ptr %0, ptr %4, align 8, !tbaa !26
  store i32 %1, ptr %5, align 4, !tbaa !4
  store float %2, ptr %6, align 4, !tbaa !15
  %7 = load i32, ptr %5, align 4, !tbaa !4
  %8 = icmp eq i32 %7, 12
  br i1 %8, label %9, label %14

9:                                                ; preds = %3
  %10 = load ptr, ptr @stderr, align 8, !tbaa !90
  %11 = load i32, ptr %5, align 4, !tbaa !4
  %12 = call noundef ptr @_Z17enumValueToString5Fonts(i32 noundef 0)
  %13 = call i32 (ptr, ptr, ...) @fprintf(ptr noundef %10, ptr noundef @.str.45, i32 noundef %11, ptr noundef %12) #14
  store i32 0, ptr %5, align 4, !tbaa !4
  br label %14

14:                                               ; preds = %9, %3
  %15 = load ptr, ptr %4, align 8, !tbaa !26
  %16 = getelementptr inbounds nuw %struct.t_psdata, ptr %15, i32 0, i32 0
  %17 = load ptr, ptr %16, align 8, !tbaa !17
  %18 = load i32, ptr %5, align 4, !tbaa !4
  %19 = call noundef ptr @_Z17enumValueToString5Fonts(i32 noundef %18)
  %20 = call i32 (ptr, ptr, ...) @fprintf(ptr noundef %17, ptr noundef @.str.46, ptr noundef %19) #14
  %21 = load ptr, ptr %4, align 8, !tbaa !26
  %22 = getelementptr inbounds nuw %struct.t_psdata, ptr %21, i32 0, i32 0
  %23 = load ptr, ptr %22, align 8, !tbaa !17
  %24 = load float, ptr %6, align 4, !tbaa !15
  %25 = fpext float %24 to double
  %26 = call i32 (ptr, ptr, ...) @fprintf(ptr noundef %23, ptr noundef @.str.47, double noundef %25) #14
  ret void
}