; Function Attrs: mustprogress nofree nounwind uwtable
define void @_Z7ps_fontP8t_psdata5Fontsf(ptr noundef readonly captures(none) %0, i32 noundef %1, float noundef %2) local_unnamed_addr #8 {
  %4 = icmp eq i32 %1, 12
  br i1 %4, label %5, label %8

5:                                                ; preds = %3
  %6 = load ptr, ptr @stderr, align 8, !tbaa !53
  %7 = tail call i32 (ptr, ptr, ...) @fprintf(ptr noundef %6, ptr noundef nonnull @.str.45, i32 noundef 12, ptr noundef nonnull @.str) #22
  br label %8

8:                                                ; preds = %5, %3
  %.0 = phi i32 [ 0, %5 ], [ %1, %3 ]
  %9 = load ptr, ptr %0, align 8, !tbaa !9
  %10 = sext i32 %.0 to i64
  %11 = getelementptr inbounds nuw [12 x ptr], ptr @__const._Z17enumValueToString5Fonts.fontNames, i64 0, i64 %10
  %12 = load ptr, ptr %11, align 8, !tbaa !4
  %13 = tail call i32 (ptr, ptr, ...) @fprintf(ptr noundef %9, ptr noundef nonnull @.str.46, ptr noundef %12) #18
  %14 = load ptr, ptr %0, align 8, !tbaa !9
  %15 = fpext float %2 to double
  %16 = tail call i32 (ptr, ptr, ...) @fprintf(ptr noundef %14, ptr noundef nonnull @.str.47, double noundef %15) #18
  ret void
}